; Function Attrs: mustprogress null_pointer_is_valid sspstrong uwtable
define void @_ZN18FollowStreamDialog17captureFileClosedEv(ptr noundef align 8 dereferenceable_or_null(452) %0) unnamed_addr #2 align 2 personality ptr @__gxx_personality_v0 {
  %2 = alloca %class.QString, align 8
  call void @llvm.lifetime.start.p0(i64 24, ptr nonnull %2) #29
  call void @_ZNK11QMetaObject2trEPKcS1_i(ptr dead_on_unwind nonnull writable sret(%class.QString) align 8 %2, ptr noundef nonnull align 8 dereferenceable_or_null(56) @_ZN18FollowStreamDialog16staticMetaObjectE, ptr noundef nonnull @.str.60, ptr noundef null, i32 noundef -1)
  %3 = getelementptr inbounds nuw i8, ptr %0, i64 144
  %4 = load ptr, ptr %3, align 8
  %5 = getelementptr inbounds nuw i8, ptr %4, i64 96
  %6 = load ptr, ptr %5, align 8
  invoke void @_ZN7QWidget10setToolTipERK7QString(ptr noundef align 8 dereferenceable_or_null(40) %6, ptr noundef nonnull align 8 dereferenceable(24) %2)
          to label %7 unwind label %17

7:                                                ; preds = %1
  %8 = load ptr, ptr %3, align 8
  %9 = getelementptr inbounds nuw i8, ptr %8, i64 88
  %10 = load ptr, ptr %9, align 8
  invoke void @_ZN7QWidget10setToolTipERK7QString(ptr noundef align 8 dereferenceable_or_null(40) %10, ptr noundef nonnull align 8 dereferenceable(24) %2)
          to label %11 unwind label %17

11:                                               ; preds = %7
  invoke void @_ZN15WiresharkDialog17captureFileClosedEv(ptr noundef align 8 dereferenceable_or_null(141) %0)
          to label %12 unwind label %17

12:                                               ; preds = %11
  %13 = load ptr, ptr %2, align 8
  %.not.i.i.i = icmp eq ptr %13, null
  br i1 %.not.i.i.i, label %_ZN7QStringD2Ev.exit, label %_ZN17QArrayDataPointerIDsE5derefEv.exit.i.i

_ZN17QArrayDataPointerIDsE5derefEv.exit.i.i:      ; preds = %12
  %14 = atomicrmw sub ptr %13, i32 1 seq_cst, align 4
  %.not.i.i = icmp eq i32 %14, 1
  br i1 %.not.i.i, label %15, label %_ZN7QStringD2Ev.exit

15:                                               ; preds = %_ZN17QArrayDataPointerIDsE5derefEv.exit.i.i
  %16 = load ptr, ptr %2, align 8
  call void @_ZN10QArrayData10deallocateEPS_xx(ptr noundef %16, i64 noundef 2, i64 noundef 8) #29
  br label %_ZN7QStringD2Ev.exit

_ZN7QStringD2Ev.exit:                             ; preds = %12, %_ZN17QArrayDataPointerIDsE5derefEv.exit.i.i, %15
  call void @llvm.lifetime.end.p0(i64 24, ptr nonnull %2) #29
  ret void

17:                                               ; preds = %11, %7, %1
  %18 = landingpad { ptr, i32 }
          cleanup
  %19 = load ptr, ptr %2, align 8
  %.not.i.i.i2 = icmp eq ptr %19, null
  br i1 %.not.i.i.i2, label %_ZN7QStringD2Ev.exit5, label %_ZN17QArrayDataPointerIDsE5derefEv.exit.i.i3

_ZN17QArrayDataPointerIDsE5derefEv.exit.i.i3:     ; preds = %17
  %20 = atomicrmw sub ptr %19, i32 1 seq_cst, align 4
  %.not.i.i4 = icmp eq i32 %20, 1
  br i1 %.not.i.i4, label %21, label %_ZN7QStringD2Ev.exit5

21:                                               ; preds = %_ZN17QArrayDataPointerIDsE5derefEv.exit.i.i3
  %22 = load ptr, ptr %2, align 8
  call void @_ZN10QArrayData10deallocateEPS_xx(ptr noundef %22, i64 noundef 2, i64 noundef 8) #29
  br label %_ZN7QStringD2Ev.exit5

_ZN7QStringD2Ev.exit5:                            ; preds = %17, %_ZN17QArrayDataPointerIDsE5derefEv.exit.i.i3, %21
  call void @llvm.lifetime.end.p0(i64 24, ptr nonnull %2) #29
  resume { ptr, i32 } %18
}